target datalayout = "e-m:e-p270:32:32-p271:32:32-p272:64:64-i64:64-i128:128-f80:128-n8:16:32:64-S128"
target triple = "x86_64-pc-linux-gnu"

%class.QString = type { %struct.QArrayDataPointer }
%struct.QArrayDataPointer = type { ptr, ptr, i64 }
%class.QPen = type { ptr }
%class.QBrush = type { %"class.std::unique_ptr" }
%"class.std::unique_ptr" = type { %"struct.std::__uniq_ptr_data" }
%"struct.std::__uniq_ptr_data" = type { %"class.std::__uniq_ptr_impl" }
%"class.std::__uniq_ptr_impl" = type { %"class.std::tuple" }
%"class.std::tuple" = type { %"struct.std::_Tuple_impl" }
%"struct.std::_Tuple_impl" = type { %"struct.std::_Head_base.32" }
%"struct.std::_Head_base.32" = type { ptr }
%class.QSharedPointer = type { ptr, ptr }
%class.QList.6 = type { %struct.QArrayDataPointer.9 }
%struct.QArrayDataPointer.9 = type { ptr, ptr, i64 }
%class.QVariant = type { %"struct.QVariant::Private" }
%"struct.QVariant::Private" = type { %union.anon, i64 }
%union.anon = type { ptr, [16 x i8] }
%class.QFlags.30 = type { i32 }
%class.RtpPlayerDialog = type { %class.RtpBaseDialog.base, ptr, ptr, ptr, double, double, double, double, double, double, ptr, ptr, %class.QString, %class.QSharedPointer, %class.QSharedPointer.1, i8, %class.QList.2, ptr, %class.QTimer, i64, i32, ptr, i8, ptr, ptr, ptr, ptr, ptr, %class.QMultiHash, i8, i32, i8, double, ptr, %class.QPoint }
%class.RtpBaseDialog.base = type { %class.WiresharkDialog.base }
%class.WiresharkDialog.base = type <{ %class.GeometryStateDialog, ptr, i8, [7 x i8], %class.QString, %class.QList, i32, i8 }>
%class.GeometryStateDialog = type { %class.QDialog, %class.QString, ptr }
%class.QDialog = type { %class.QWidget }
%class.QWidget = type { %class.QObject, %class.QPaintDevice.base, ptr }
%class.QObject = type { ptr, %class.QScopedPointer }
%class.QScopedPointer = type { ptr }
%class.QPaintDevice.base = type <{ ptr, i16 }>
%class.QList = type { %struct.QArrayDataPointer.0 }
%struct.QArrayDataPointer.0 = type { ptr, ptr, i64 }
%class.QSharedPointer.1 = type { ptr, ptr }
%class.QList.2 = type { %struct.QArrayDataPointer.5 }
%struct.QArrayDataPointer.5 = type { ptr, ptr, i64 }
%class.QTimer = type { %class.QObject }
%class.QMultiHash = type { ptr, i64 }
%class.QPoint = type { i32, i32 }
%class.Ui_RtpPlayerDialog = type { ptr, ptr, ptr, ptr, ptr, ptr, ptr, ptr, ptr, ptr, ptr, ptr, ptr, ptr, ptr, ptr, ptr, ptr, ptr, ptr, ptr, ptr, ptr, ptr, ptr, ptr, ptr, ptr, ptr, ptr, ptr, ptr, ptr, ptr, ptr, ptr, ptr, ptr, ptr, ptr, ptr, ptr, ptr, ptr, ptr, ptr, ptr, ptr, ptr, ptr, ptr, ptr, ptr, ptr, ptr, ptr, ptr, ptr, ptr, ptr, ptr, ptr, ptr, ptr, ptr, ptr, ptr, ptr }
%class.QCustomPlot = type <{ %class.QWidget, ptr, ptr, ptr, ptr, ptr, %class.QRect, double, ptr, i8, [7 x i8], %class.QList.14, %class.QList.18, %class.QList.22, %class.QList.26, %class.QFlags, %class.QFlags, %class.QFlags.30, i32, i8, [7 x i8], %class.QBrush, %class.QPixmap, %class.QPixmap, i8, [3 x i8], i32, ptr, %class.QFlags.34, i32, i32, [4 x i8], ptr, i8, [7 x i8], %class.QList.35, %class.QPoint, i8, [7 x i8], %class.QPointer, %class.QPointer, %class.QVariant, %class.QVariant, i8, i8, [6 x i8], double, double, i32, %class.QFlags, i8, [7 x i8] }>
%class.QRect = type { i32, i32, i32, i32 }
%class.QList.14 = type { %struct.QArrayDataPointer.17 }
%struct.QArrayDataPointer.17 = type { ptr, ptr, i64 }
%class.QList.18 = type { %struct.QArrayDataPointer.21 }
%struct.QArrayDataPointer.21 = type { ptr, ptr, i64 }
%class.QList.22 = type { %struct.QArrayDataPointer.25 }
%struct.QArrayDataPointer.25 = type { ptr, ptr, i64 }
%class.QList.26 = type { %struct.QArrayDataPointer.29 }
%struct.QArrayDataPointer.29 = type { ptr, ptr, i64 }
%class.QPixmap = type { %class.QPaintDevice.base, %class.QExplicitlySharedDataPointer.33 }
%class.QExplicitlySharedDataPointer.33 = type { ptr }
%class.QFlags.34 = type { i32 }
%class.QList.35 = type { %struct.QArrayDataPointer.38 }
%struct.QArrayDataPointer.38 = type { ptr, ptr, i64 }
%class.QPointer = type { %class.QWeakPointer }
%class.QWeakPointer = type { ptr, ptr }
%class.QFlags = type { i32 }
%class.QFont = type <{ %class.QExplicitlySharedDataPointer, i32, [4 x i8] }>
%class.QExplicitlySharedDataPointer = type { ptr }
%class.QCPLayerable.base = type <{ %class.QObject, i8, [7 x i8], ptr, %class.QPointer, ptr, i8 }>
%struct.QLatin1Char = type { i8 }
%class.QList.57 = type { %struct.QArrayDataPointer.60 }
%struct.QArrayDataPointer.60 = type { ptr, ptr, i64 }
%class.QColor = type <{ i32, %"union.QColor::CT", [2 x i8] }>
%"union.QColor::CT" = type { %struct.anon }
%struct.anon = type { i16, i16, i16, i16, i16 }
%class.QCPRange = type { double, double }
%class.QCPAxis = type { %class.QCPLayerable.base, i32, ptr, i32, i32, %class.QFlags.52, %class.QFlags.52, %class.QPen, %class.QPen, %class.QString, %class.QFont, %class.QFont, %class.QColor, %class.QColor, i8, [7 x i8], %class.QFont, %class.QFont, %class.QColor, %class.QColor, i32, %struct.QLatin1Char, i8, i8, i8, %class.QPen, %class.QPen, %class.QPen, %class.QPen, %class.QCPRange, i8, i32, ptr, ptr, %class.QSharedPointer, %class.QList.57, %class.QList.6, %class.QList.57, i8, i32, i8, %class.QCPRange, %class.QFlags, %class.QFlags }
%class.QFlags.52 = type { i32 }
%class.QCPLayoutElement = type { %class.QCPLayerable.base, ptr, %class.QSize, %class.QSize, i32, %class.QRect, %class.QRect, %class.QMargins, %class.QMargins, %class.QFlags.97, %class.QHash.98 }
%class.QSize = type { i32, i32 }
%class.QMargins = type { i32, i32, i32, i32 }
%class.QFlags.97 = type { i32 }
%class.QHash.98 = type { ptr }

; Function Attrs: inlinehint mustprogress nounwind null_pointer_is_valid sspstrong uwtable
define linkonce_odr noundef i32 @_ZNK5QRect5widthEv(ptr noundef align 4 dereferenceable_or_null(16) %0) #7 comdat align 2 {
  %2 = alloca ptr, align 8
  store ptr %0, ptr %2, align 8
  %3 = load ptr, ptr %2, align 8
  %4 = getelementptr inbounds nuw %class.QRect, ptr %3, i32 0, i32 2
  %5 = load i32, ptr %4, align 4
  %6 = getelementptr inbounds nuw %class.QRect, ptr %3, i32 0, i32 0
  %7 = load i32, ptr %6, align 4
  %8 = sub i32 %5, %7
  %9 = add i32 %8, 1
  ret i32 %9
}

; Function Attrs: mustprogress nounwind null_pointer_is_valid sspstrong uwtable
define linkonce_odr noundef i32 @_ZNK11QCPAxisRect5widthEv(ptr noundef align 8 dereferenceable_or_null(432) %0) #6 comdat align 2 {
  %2 = alloca ptr, align 8
  store ptr %0, ptr %2, align 8
  %3 = load ptr, ptr %2, align 8
  %4 = getelementptr inbounds nuw %class.QCPLayoutElement, ptr %3, i32 0, i32 5
  %5 = call noundef i32 @_ZNK5QRect5widthEv(ptr noundef align 4 dereferenceable_or_null(16) %4) #26
  ret i32 %5
}

; Function Attrs: mustprogress nounwind null_pointer_is_valid sspstrong uwtable
define linkonce_odr noundef ptr @_ZNK7QCPAxis8axisRectEv(ptr noundef align 8 dereferenceable_or_null(472) %0) #6 comdat align 2 {
  %2 = alloca ptr, align 8
  store ptr %0, ptr %2, align 8
  %3 = load ptr, ptr %2, align 8
  %4 = getelementptr inbounds nuw %class.QCPAxis, ptr %3, i32 0, i32 2
  %5 = load ptr, ptr %4, align 8
  ret ptr %5
}

; Function Attrs: mustprogress nounwind null_pointer_is_valid sspstrong uwtable
define linkonce_odr noundef double @_ZNK8QCPRange4sizeEv(ptr noundef align 8 dereferenceable_or_null(16) %0) #6 comdat align 2 {
  %2 = alloca ptr, align 8
  store ptr %0, ptr %2, align 8
  %3 = load ptr, ptr %2, align 8
  %4 = getelementptr inbounds nuw %class.QCPRange, ptr %3, i32 0, i32 1
  %5 = load double, ptr %4, align 8
  %6 = getelementptr inbounds nuw %class.QCPRange, ptr %3, i32 0, i32 0
  %7 = load double, ptr %6, align 8
  %8 = fsub double %5, %7
  ret double %8
}

; Function Attrs: mustprogress nounwind null_pointer_is_valid sspstrong uwtable
define linkonce_odr { double, double } @_ZNK7QCPAxis5rangeEv(ptr noundef align 8 dereferenceable_or_null(472) %0) #6 comdat align 2 {
  %2 = alloca %class.QCPRange, align 8
  %3 = alloca ptr, align 8
  store ptr %0, ptr %3, align 8
  %4 = load ptr, ptr %3, align 8
  %5 = getelementptr inbounds nuw %class.QCPAxis, ptr %4, i32 0, i32 29
  call void @llvm.memcpy.p0.p0.i64(ptr align 8 %2, ptr align 8 %5, i64 16, i1 false)
  %6 = load { double, double }, ptr %2, align 8
  ret { double, double } %6
}

; Function Attrs: mustprogress null_pointer_is_valid sspstrong uwtable
define void @_ZN15RtpPlayerDialog8panXAxisEi(ptr noundef align 8 dereferenceable_or_null(472) %0, i32 noundef %1) #0 align 2 {
  %3 = alloca ptr, align 8
  %4 = alloca i32, align 4
  %5 = alloca ptr, align 8
  %6 = alloca double, align 8
  %7 = alloca %class.QCPRange, align 8
  store ptr %0, ptr %3, align 8
  store i32 %1, ptr %4, align 4
  %8 = load ptr, ptr %3, align 8
  call void @llvm.lifetime.start.p0(i64 8, ptr %5) #26
  %9 = getelementptr inbounds nuw %class.RtpPlayerDialog, ptr %8, i32 0, i32 1
  %10 = load ptr, ptr %9, align 8
  %11 = getelementptr inbounds nuw %class.Ui_RtpPlayerDialog, ptr %10, i32 0, i32 39
  %12 = load ptr, ptr %11, align 8
  store ptr %12, ptr %5, align 8
  call void @llvm.lifetime.start.p0(i64 8, ptr %6) #26
  call void @llvm.lifetime.start.p0(i64 16, ptr %7) #26
  %13 = load ptr, ptr %5, align 8
  %14 = getelementptr inbounds nuw %class.QCustomPlot, ptr %13, i32 0, i32 1
  %15 = load ptr, ptr %14, align 8
  %16 = call { double, double } @_ZNK7QCPAxis5rangeEv(ptr noundef align 8 dereferenceable_or_null(472) %15)
  %17 = getelementptr inbounds nuw { double, double }, ptr %7, i32 0, i32 0
  %18 = extractvalue { double, double } %16, 0
  store double %18, ptr %17, align 8
  %19 = getelementptr inbounds nuw { double, double }, ptr %7, i32 0, i32 1
  %20 = extractvalue { double, double } %16, 1
  store double %20, ptr %19, align 8
  %21 = call noundef double @_ZNK8QCPRange4sizeEv(ptr noundef align 8 dereferenceable_or_null(16) %7)
  %22 = load i32, ptr %4, align 4
  %23 = sitofp i32 %22 to double
  %24 = fmul double %21, %23
  %25 = load ptr, ptr %5, align 8
  %26 = getelementptr inbounds nuw %class.QCustomPlot, ptr %25, i32 0, i32 1
  %27 = load ptr, ptr %26, align 8
  %28 = call noundef ptr @_ZNK7QCPAxis8axisRectEv(ptr noundef align 8 dereferenceable_or_null(472) %27)
  %29 = call noundef i32 @_ZNK11QCPAxisRect5widthEv(ptr noundef align 8 dereferenceable_or_null(432) %28)
  %30 = sitofp i32 %29 to double
  %31 = fdiv double %24, %30
  store double %31, ptr %6, align 8
  call void @llvm.lifetime.end.p0(i64 16, ptr %7) #26
  %32 = load i32, ptr %4, align 4
  %33 = icmp ne i32 %32, 0
  br i1 %33, label %34, label %40

34:                                               ; preds = %2
  %35 = load ptr, ptr %5, align 8
  %36 = getelementptr inbounds nuw %class.QCustomPlot, ptr %35, i32 0, i32 1
  %37 = load ptr, ptr %36, align 8
  %38 = load double, ptr %6, align 8
  call void @_ZN7QCPAxis9moveRangeEd(ptr noundef align 8 dereferenceable_or_null(472) %37, double noundef %38)
  %39 = load ptr, ptr %5, align 8
  call void @_ZN11QCustomPlot6replotENS_15RefreshPriorityE(ptr noundef align 8 dereferenceable_or_null(513) %39, i32 noundef 2)
  br label %40

40:                                               ; preds = %34, %2
  call void @llvm.lifetime.end.p0(i64 8, ptr %6) #26
  call void @llvm.lifetime.end.p0(i64 8, ptr %5) #26
  ret void
}

; Function Attrs: mustprogress null_pointer_is_valid sspstrong uwtable
define void @_ZN15RtpPlayerDialog30on_actionMoveRight10_triggeredEv(ptr noundef align 8 dereferenceable_or_null(472) %0) #0 align 2 {
  %2 = alloca ptr, align 8
  store ptr %0, ptr %2, align 8
  %3 = load ptr, ptr %2, align 8
  call void @_ZN15RtpPlayerDialog8panXAxisEi(ptr noundef align 8 dereferenceable_or_null(472) %3, i32 noundef 10)
  ret void
}